target datalayout = "e-m:e-p270:32:32-p271:32:32-p272:64:64-i64:64-i128:128-f80:128-n8:16:32:64-S128"
target triple = "x86_64-pc-linux-gnu"

%struct.varattrib_1b = type { i8, [0 x i8] }
%struct.varattrib_1b_e = type { i8, i8, [0 x i8] }
%struct.anon = type { i32, [0 x i8] }

; Function Attrs: nounwind uwtable
define dso_local i64 @varsize_any(ptr noundef %0) #0 {
  %2 = alloca ptr, align 8
  store ptr %0, ptr %2, align 8
  %3 = load ptr, ptr %2, align 8
  %4 = getelementptr inbounds nuw %struct.varattrib_1b, ptr %3, i32 0, i32 0
  %5 = load i8, ptr %4, align 1
  %6 = zext i8 %5 to i32
  %7 = icmp eq i32 %6, 1
  br i1 %7, label %8, label %35

8:                                                ; preds = %1
  %9 = load ptr, ptr %2, align 8
  %10 = getelementptr inbounds nuw %struct.varattrib_1b_e, ptr %9, i32 0, i32 1
  %11 = load i8, ptr %10, align 1
  %12 = zext i8 %11 to i32
  %13 = icmp eq i32 %12, 1
  br i1 %13, label %14, label %15

14:                                               ; preds = %8
  br label %32

15:                                               ; preds = %8
  %16 = load ptr, ptr %2, align 8
  %17 = getelementptr inbounds nuw %struct.varattrib_1b_e, ptr %16, i32 0, i32 1
  %18 = load i8, ptr %17, align 1
  %19 = zext i8 %18 to i32
  %20 = and i32 %19, -2
  %21 = icmp eq i32 %20, 2
  br i1 %21, label %22, label %23

22:                                               ; preds = %15
  br label %30

23:                                               ; preds = %15
  %24 = load ptr, ptr %2, align 8
  %25 = getelementptr inbounds nuw %struct.varattrib_1b_e, ptr %24, i32 0, i32 1
  %26 = load i8, ptr %25, align 1
  %27 = zext i8 %26 to i32
  %28 = icmp eq i32 %27, 18
  %29 = select i1 %28, i64 16, i64 0
  br label %30

30:                                               ; preds = %23, %22
  %31 = phi i64 [ 8, %22 ], [ %29, %23 ]
  br label %32

32:                                               ; preds = %30, %14
  %33 = phi i64 [ 8, %14 ], [ %31, %30 ]
  %34 = add i64 2, %33
  br label %58

35:                                               ; preds = %1
  %36 = load ptr, ptr %2, align 8
  %37 = getelementptr inbounds nuw %struct.varattrib_1b, ptr %36, i32 0, i32 0
  %38 = load i8, ptr %37, align 1
  %39 = zext i8 %38 to i32
  %40 = and i32 %39, 1
  %41 = icmp eq i32 %40, 1
  br i1 %41, label %42, label %49

42:                                               ; preds = %35
  %43 = load ptr, ptr %2, align 8
  %44 = getelementptr inbounds nuw %struct.varattrib_1b, ptr %43, i32 0, i32 0
  %45 = load i8, ptr %44, align 1
  %46 = zext i8 %45 to i32
  %47 = ashr i32 %46, 1
  %48 = and i32 %47, 127
  br label %55

49:                                               ; preds = %35
  %50 = load ptr, ptr %2, align 8
  %51 = getelementptr inbounds nuw %struct.anon, ptr %50, i32 0, i32 0
  %52 = load i32, ptr %51, align 4
  %53 = lshr i32 %52, 2
  %54 = and i32 %53, 1073741823
  br label %55

55:                                               ; preds = %49, %42
  %56 = phi i32 [ %48, %42 ], [ %54, %49 ]
  %57 = zext i32 %56 to i64
  br label %58

58:                                               ; preds = %55, %32
  %59 = phi i64 [ %34, %32 ], [ %57, %55 ]
  ret i64 %59
}