; Function Attrs: mustprogress nofree norecurse nosync nounwind willreturn memory(argmem: read) uwtable
define dso_local range(i64 0, 1073741824) i64 @varsize_any(ptr noundef readonly captures(none) %0) local_unnamed_addr #8 {
  %2 = load i8, ptr %0, align 1
  %3 = zext i8 %2 to i32
  %4 = icmp eq i8 %2, 1
  br i1 %4, label %5, label %14

5:                                                ; preds = %1
  %6 = getelementptr inbounds nuw i8, ptr %0, i64 1
  %7 = load i8, ptr %6, align 1
  %8 = icmp eq i8 %7, 1
  %9 = and i8 %7, -2
  %10 = icmp eq i8 %9, 2
  %or.cond = or i1 %8, %10
  %11 = icmp eq i8 %7, 18
  %12 = select i1 %11, i64 18, i64 2
  %13 = select i1 %or.cond, i64 10, i64 %12
  br label %24

14:                                               ; preds = %1
  %15 = and i32 %3, 1
  %.not = icmp eq i32 %15, 0
  br i1 %.not, label %18, label %16

16:                                               ; preds = %14
  %17 = lshr i32 %3, 1
  br label %21

18:                                               ; preds = %14
  %19 = load i32, ptr %0, align 4
  %20 = lshr i32 %19, 2
  br label %21

21:                                               ; preds = %18, %16
  %22 = phi i32 [ %17, %16 ], [ %20, %18 ]
  %23 = zext nneg i32 %22 to i64
  br label %24

24:                                               ; preds = %21, %5
  %25 = phi i64 [ %13, %5 ], [ %23, %21 ]
  ret i64 %25
}